target datalayout = "e-m:e-p270:32:32-p271:32:32-p272:64:64-i64:64-i128:128-f80:128-n8:16:32:64-S128"
target triple = "x86_64-pc-linux-gnu"

%struct.H5E_stack_t = type { i64, [32 x %struct.H5E_entry_t], %struct.H5E_auto_op_t, ptr, i32 }
%struct.H5E_entry_t = type { i8, %struct.H5E_error2_t }
%struct.H5E_error2_t = type { i64, i64, i64, i32, ptr, ptr, ptr }
%struct.H5E_auto_op_t = type { i32, i8, ptr, ptr, ptr, ptr }

@H5E_ERROR_g = global i64 -1, align 8
@H5E_CANTGET_g = global i64 -1, align 8
@H5E_CANTSET_g = global i64 -1, align 8
@H5E_init_g = external global i8, align 1
@H5_libterm_g = external global i8, align 1
@.str.1 = private unnamed_addr constant [100 x i8] c"generated/home/dtcxzyw/WorkSpace/Projects/compilers/llvm-opt-benchmark/bench/hdf5/hdf5/src/H5Eint.c\00", align 1
@H5E_stack_g = global [1 x %struct.H5E_stack_t] zeroinitializer, align 16
@.str.7 = private unnamed_addr constant [30 x i8] c"can't get current error stack\00", align 1
@.str.10 = private unnamed_addr constant [22 x i8] c"can't set error entry\00", align 1
@__func__.H5E__set_current_stack = private unnamed_addr constant [23 x i8] c"H5E__set_current_stack\00", align 1
@.str.15 = private unnamed_addr constant [24 x i8] c"can't clear error stack\00", align 1
@__func__.H5E__destroy_stack = private unnamed_addr constant [19 x i8] c"H5E__destroy_stack\00", align 1

; Function Attrs: nounwind uwtable
define i32 @H5E__destroy_stack(ptr noundef %0) #0 {
  %2 = alloca ptr, align 8
  %3 = alloca i32, align 4
  %4 = alloca i8, align 1
  store ptr %0, ptr %2, align 8, !tbaa !16
  call void @llvm.lifetime.start.p0(i64 4, ptr %3) #9
  store i32 0, ptr %3, align 4, !tbaa !3
  call void @llvm.lifetime.start.p0(i64 1, ptr %4) #9
  store i8 0, ptr %4, align 1, !tbaa !7
  %5 = load i8, ptr @H5E_init_g, align 1, !tbaa !7, !range !9, !noundef !10
  %6 = trunc i8 %5 to i1
  br i1 %6, label %11, label %7

7:                                                ; preds = %1
  %8 = load i8, ptr @H5_libterm_g, align 1, !tbaa !7, !range !9, !noundef !10
  %9 = trunc i8 %8 to i1
  %10 = xor i1 %9, true
  br label %11

11:                                               ; preds = %7, %1
  %12 = phi i1 [ true, %1 ], [ %10, %7 ]
  %13 = xor i1 %12, true
  %14 = xor i1 %13, true
  %15 = zext i1 %14 to i32
  %16 = sext i32 %15 to i64
  %17 = call i64 @llvm.expect.i64(i64 %16, i64 1)
  %18 = icmp ne i64 %17, 0
  br i1 %18, label %19, label %77

19:                                               ; preds = %11
  %20 = load ptr, ptr %2, align 8, !tbaa !16
  %21 = icmp eq ptr %20, null
  br i1 %21, label %22, label %43

22:                                               ; preds = %19
  store ptr @H5E_stack_g, ptr %2, align 8, !tbaa !16
  br i1 false, label %23, label %42

23:                                               ; preds = %22
  br label %24

24:                                               ; preds = %23
  br label %25

25:                                               ; preds = %24
  br label %26

26:                                               ; preds = %25
  %27 = load i64, ptr @H5E_ERROR_g, align 8, !tbaa !11
  %28 = load i64, ptr @H5E_CANTGET_g, align 8, !tbaa !11
  %29 = call i32 (ptr, ptr, i32, i64, i64, ptr, ...) @H5E_printf_stack(ptr noundef @.str.1, ptr noundef @__func__.H5E__destroy_stack, i32 noundef 1887, i64 noundef %27, i64 noundef %28, ptr noundef @.str.7)
  br label %30

30:                                               ; preds = %26
  br label %31

31:                                               ; preds = %30
  store i8 1, ptr %4, align 1, !tbaa !7
  %32 = load i8, ptr %4, align 1, !tbaa !7, !range !9, !noundef !10
  %33 = trunc i8 %32 to i1
  %34 = zext i1 %33 to i8
  store i8 %34, ptr %4, align 1, !tbaa !7
  br label %35

35:                                               ; preds = %31
  br label %36

36:                                               ; preds = %35
  br label %37

37:                                               ; preds = %36
  store i32 -1, ptr %3, align 4, !tbaa !3
  br label %76

38:                                               ; No predecessors!
  br label %39

39:                                               ; preds = %38
  br label %40

40:                                               ; preds = %39
  br label %41

41:                                               ; preds = %40
  br label %42

42:                                               ; preds = %41, %22
  br label %43

43:                                               ; preds = %42, %19
  %44 = load ptr, ptr %2, align 8, !tbaa !16
  %45 = getelementptr inbounds nuw %struct.H5E_stack_t, ptr %44, i32 0, i32 0
  %46 = load i64, ptr %45, align 8, !tbaa !21
  %47 = icmp ne i64 %46, 0
  br i1 %47, label %48, label %75

48:                                               ; preds = %43
  %49 = load ptr, ptr %2, align 8, !tbaa !16
  %50 = load ptr, ptr %2, align 8, !tbaa !16
  %51 = getelementptr inbounds nuw %struct.H5E_stack_t, ptr %50, i32 0, i32 0
  %52 = load i64, ptr %51, align 8, !tbaa !21
  %53 = call i32 @H5E__clear_entries(ptr noundef %49, i64 noundef %52)
  %54 = icmp slt i32 %53, 0
  br i1 %54, label %55, label %74

55:                                               ; preds = %48
  br label %56

56:                                               ; preds = %55
  br label %57

57:                                               ; preds = %56
  br label %58

58:                                               ; preds = %57
  %59 = load i64, ptr @H5E_ERROR_g, align 8, !tbaa !11
  %60 = load i64, ptr @H5E_CANTSET_g, align 8, !tbaa !11
  %61 = call i32 (ptr, ptr, i32, i64, i64, ptr, ...) @H5E_printf_stack(ptr noundef @.str.1, ptr noundef @__func__.H5E__destroy_stack, i32 noundef 1892, i64 noundef %59, i64 noundef %60, ptr noundef @.str.15)
  br label %62

62:                                               ; preds = %58
  br label %63

63:                                               ; preds = %62
  store i8 1, ptr %4, align 1, !tbaa !7
  %64 = load i8, ptr %4, align 1, !tbaa !7, !range !9, !noundef !10
  %65 = trunc i8 %64 to i1
  %66 = zext i1 %65 to i8
  store i8 %66, ptr %4, align 1, !tbaa !7
  br label %67

67:                                               ; preds = %63
  br label %68

68:                                               ; preds = %67
  br label %69

69:                                               ; preds = %68
  store i32 -1, ptr %3, align 4, !tbaa !3
  br label %76

70:                                               ; No predecessors!
  br label %71

71:                                               ; preds = %70
  br label %72

72:                                               ; preds = %71
  br label %73

73:                                               ; preds = %72
  br label %74

74:                                               ; preds = %73, %48
  br label %75

75:                                               ; preds = %74, %43
  br label %76

76:                                               ; preds = %75, %69, %37
  br label %77

77:                                               ; preds = %76, %11
  %78 = load i32, ptr %3, align 4, !tbaa !3
  call void @llvm.lifetime.end.p0(i64 1, ptr %4) #9
  call void @llvm.lifetime.end.p0(i64 4, ptr %3) #9
  ret i32 %78
}

; Function Attrs: nounwind uwtable
define i32 @H5E__set_current_stack(ptr noundef %0) #0 {
  %2 = alloca ptr, align 8
  %3 = alloca ptr, align 8
  %4 = alloca i32, align 4
  %5 = alloca i32, align 4
  %6 = alloca i8, align 1
  store ptr %0, ptr %2, align 8, !tbaa !16
  call void @llvm.lifetime.start.p0(i64 8, ptr %3) #9
  call void @llvm.lifetime.start.p0(i64 4, ptr %4) #9
  call void @llvm.lifetime.start.p0(i64 4, ptr %5) #9
  store i32 0, ptr %5, align 4, !tbaa !3
  call void @llvm.lifetime.start.p0(i64 1, ptr %6) #9
  store i8 0, ptr %6, align 1, !tbaa !7
  %7 = load i8, ptr @H5E_init_g, align 1, !tbaa !7, !range !9, !noundef !10
  %8 = trunc i8 %7 to i1
  br i1 %8, label %13, label %9

9:                                                ; preds = %1
  %10 = load i8, ptr @H5_libterm_g, align 1, !tbaa !7, !range !9, !noundef !10
  %11 = trunc i8 %10 to i1
  %12 = xor i1 %11, true
  br label %13

13:                                               ; preds = %9, %1
  %14 = phi i1 [ true, %1 ], [ %12, %9 ]
  %15 = xor i1 %14, true
  %16 = xor i1 %15, true
  %17 = zext i1 %16 to i32
  %18 = sext i32 %17 to i64
  %19 = call i64 @llvm.expect.i64(i64 %18, i64 1)
  %20 = icmp ne i64 %19, 0
  br i1 %20, label %21, label %94

21:                                               ; preds = %13
  store ptr @H5E_stack_g, ptr %3, align 8, !tbaa !16
  br i1 false, label %22, label %41

22:                                               ; preds = %21
  br label %23

23:                                               ; preds = %22
  br label %24

24:                                               ; preds = %23
  br label %25

25:                                               ; preds = %24
  %26 = load i64, ptr @H5E_ERROR_g, align 8, !tbaa !11
  %27 = load i64, ptr @H5E_CANTGET_g, align 8, !tbaa !11
  %28 = call i32 (ptr, ptr, i32, i64, i64, ptr, ...) @H5E_printf_stack(ptr noundef @.str.1, ptr noundef @__func__.H5E__set_current_stack, i32 noundef 782, i64 noundef %26, i64 noundef %27, ptr noundef @.str.7)
  br label %29

29:                                               ; preds = %25
  br label %30

30:                                               ; preds = %29
  store i8 1, ptr %6, align 1, !tbaa !7
  %31 = load i8, ptr %6, align 1, !tbaa !7, !range !9, !noundef !10
  %32 = trunc i8 %31 to i1
  %33 = zext i1 %32 to i8
  store i8 %33, ptr %6, align 1, !tbaa !7
  br label %34

34:                                               ; preds = %30
  br label %35

35:                                               ; preds = %34
  br label %36

36:                                               ; preds = %35
  store i32 -1, ptr %5, align 4, !tbaa !3
  br label %93

37:                                               ; No predecessors!
  br label %38

38:                                               ; preds = %37
  br label %39

39:                                               ; preds = %38
  br label %40

40:                                               ; preds = %39
  br label %41

41:                                               ; preds = %40, %21
  %42 = load ptr, ptr %3, align 8, !tbaa !16
  %43 = call i32 @H5E__destroy_stack(ptr noundef %42)
  %44 = load ptr, ptr %2, align 8, !tbaa !16
  %45 = getelementptr inbounds nuw %struct.H5E_stack_t, ptr %44, i32 0, i32 0
  %46 = load i64, ptr %45, align 8, !tbaa !21
  %47 = load ptr, ptr %3, align 8, !tbaa !16
  %48 = getelementptr inbounds nuw %struct.H5E_stack_t, ptr %47, i32 0, i32 0
  store i64 %46, ptr %48, align 8, !tbaa !21
  store i32 0, ptr %4, align 4, !tbaa !3
  br label %49

49:                                               ; preds = %89, %41
  %50 = load i32, ptr %4, align 4, !tbaa !3
  %51 = zext i32 %50 to i64
  %52 = load ptr, ptr %3, align 8, !tbaa !16
  %53 = getelementptr inbounds nuw %struct.H5E_stack_t, ptr %52, i32 0, i32 0
  %54 = load i64, ptr %53, align 8, !tbaa !21
  %55 = icmp ult i64 %51, %54
  br i1 %55, label %56, label %92

56:                                               ; preds = %49
  %57 = load ptr, ptr %3, align 8, !tbaa !16
  %58 = getelementptr inbounds nuw %struct.H5E_stack_t, ptr %57, i32 0, i32 1
  %59 = load i32, ptr %4, align 4, !tbaa !3
  %60 = zext i32 %59 to i64
  %61 = getelementptr inbounds nuw [32 x %struct.H5E_entry_t], ptr %58, i64 0, i64 %60
  %62 = load ptr, ptr %2, align 8, !tbaa !16
  %63 = getelementptr inbounds nuw %struct.H5E_stack_t, ptr %62, i32 0, i32 1
  %64 = load i32, ptr %4, align 4, !tbaa !3
  %65 = zext i32 %64 to i64
  %66 = getelementptr inbounds nuw [32 x %struct.H5E_entry_t], ptr %63, i64 0, i64 %65
  %67 = call i32 @H5E__copy_stack_entry(ptr noundef %61, ptr noundef %66)
  %68 = icmp slt i32 %67, 0
  br i1 %68, label %69, label %88

69:                                               ; preds = %56
  br label %70

70:                                               ; preds = %69
  br label %71

71:                                               ; preds = %70
  br label %72

72:                                               ; preds = %71
  %73 = load i64, ptr @H5E_ERROR_g, align 8, !tbaa !11
  %74 = load i64, ptr @H5E_CANTSET_g, align 8, !tbaa !11
  %75 = call i32 (ptr, ptr, i32, i64, i64, ptr, ...) @H5E_printf_stack(ptr noundef @.str.1, ptr noundef @__func__.H5E__set_current_stack, i32 noundef 791, i64 noundef %73, i64 noundef %74, ptr noundef @.str.10)
  br label %76

76:                                               ; preds = %72
  br label %77

77:                                               ; preds = %76
  store i8 1, ptr %6, align 1, !tbaa !7
  %78 = load i8, ptr %6, align 1, !tbaa !7, !range !9, !noundef !10
  %79 = trunc i8 %78 to i1
  %80 = zext i1 %79 to i8
  store i8 %80, ptr %6, align 1, !tbaa !7
  br label %81

81:                                               ; preds = %77
  br label %82

82:                                               ; preds = %81
  br label %83

83:                                               ; preds = %82
  store i32 -1, ptr %5, align 4, !tbaa !3
  br label %93

84:                                               ; No predecessors!
  br label %85

85:                                               ; preds = %84
  br label %86

86:                                               ; preds = %85
  br label %87

87:                                               ; preds = %86
  br label %88

88:                                               ; preds = %87, %56
  br label %89

89:                                               ; preds = %88
  %90 = load i32, ptr %4, align 4, !tbaa !3
  %91 = add i32 %90, 1
  store i32 %91, ptr %4, align 4, !tbaa !3
  br label %49, !llvm.loop !62

92:                                               ; preds = %49
  br label %93

93:                                               ; preds = %92, %83, %36
  br label %94

94:                                               ; preds = %93, %13
  %95 = load i32, ptr %5, align 4, !tbaa !3
  call void @llvm.lifetime.end.p0(i64 1, ptr %6) #9
  call void @llvm.lifetime.end.p0(i64 4, ptr %5) #9
  call void @llvm.lifetime.end.p0(i64 4, ptr %4) #9
  call void @llvm.lifetime.end.p0(i64 8, ptr %3) #9
  ret i32 %95
}