; Function Attrs: nounwind uwtable
define range(i32 -1, 1) i32 @H5E__set_current_stack(ptr noundef readonly captures(none) %0) local_unnamed_addr #0 {
  %2 = load i8, ptr @H5E_init_g, align 1, !tbaa !3, !range !7, !noundef !8
  %3 = trunc nuw i8 %2 to i1
  %4 = load i8, ptr @H5_libterm_g, align 1, !range !7
  %5 = trunc nuw i8 %4 to i1
  %6 = xor i1 %5, true
  %7 = select i1 %3, i1 true, i1 %6
  br i1 %7, label %8, label %.loopexit, !prof !9

8:                                                ; preds = %1
  %9 = load i64, ptr @H5E_stack_g, align 16, !tbaa !13
  %.not.i = icmp eq i64 %9, 0
  br i1 %.not.i, label %H5E__destroy_stack.exit, label %10

10:                                               ; preds = %8
  %11 = tail call fastcc i32 @H5E__clear_entries(ptr noundef nonnull @H5E_stack_g, i64 noundef %9)
  %12 = icmp slt i32 %11, 0
  br i1 %12, label %13, label %H5E__destroy_stack.exit

13:                                               ; preds = %10
  %14 = load i64, ptr @H5E_ERROR_g, align 8, !tbaa !10
  %15 = load i64, ptr @H5E_CANTSET_g, align 8, !tbaa !10
  %16 = tail call i32 (ptr, ptr, i32, i64, i64, ptr, ...) @H5E_printf_stack(ptr noundef nonnull @.str.1, ptr noundef nonnull @__func__.H5E__destroy_stack, i32 noundef 1892, i64 noundef %14, i64 noundef %15, ptr noundef nonnull @.str.15)
  br label %H5E__destroy_stack.exit

H5E__destroy_stack.exit:                          ; preds = %8, %10, %13
  %17 = load i64, ptr %0, align 8, !tbaa !13
  store i64 %17, ptr @H5E_stack_g, align 16, !tbaa !13
  %.not = icmp eq i64 %17, 0
  br i1 %.not, label %.loopexit, label %.lr.ph

.lr.ph:                                           ; preds = %H5E__destroy_stack.exit
  %18 = getelementptr inbounds nuw i8, ptr %0, i64 8
  br label %24

19:                                               ; preds = %24
  %20 = add i32 %.01113, 1
  %21 = zext i32 %20 to i64
  %22 = load i64, ptr @H5E_stack_g, align 16, !tbaa !13
  %23 = icmp ugt i64 %22, %21
  br i1 %23, label %24, label %.loopexit, !llvm.loop !62

24:                                               ; preds = %.lr.ph, %19
  %25 = phi i64 [ 0, %.lr.ph ], [ %21, %19 ]
  %.01113 = phi i32 [ 0, %.lr.ph ], [ %20, %19 ]
  %26 = getelementptr inbounds nuw [32 x %struct.H5E_entry_t], ptr getelementptr inbounds nuw (i8, ptr @H5E_stack_g, i64 8), i64 0, i64 %25
  %27 = getelementptr inbounds nuw [32 x %struct.H5E_entry_t], ptr %18, i64 0, i64 %25
  %28 = tail call fastcc i32 @H5E__copy_stack_entry(ptr noundef nonnull %26, ptr noundef nonnull %27)
  %29 = icmp slt i32 %28, 0
  br i1 %29, label %30, label %19

30:                                               ; preds = %24
  %31 = load i64, ptr @H5E_ERROR_g, align 8, !tbaa !10
  %32 = load i64, ptr @H5E_CANTSET_g, align 8, !tbaa !10
  %33 = tail call i32 (ptr, ptr, i32, i64, i64, ptr, ...) @H5E_printf_stack(ptr noundef nonnull @.str.1, ptr noundef nonnull @__func__.H5E__set_current_stack, i32 noundef 791, i64 noundef %31, i64 noundef %32, ptr noundef nonnull @.str.10)
  br label %.loopexit

.loopexit:                                        ; preds = %19, %H5E__destroy_stack.exit, %30, %1
  %.0 = phi i32 [ -1, %30 ], [ 0, %1 ], [ 0, %H5E__destroy_stack.exit ], [ 0, %19 ]
  ret i32 %.0
}